; Function Attrs: mustprogress nofree norecurse nounwind willreturn uwtable
define void @_ZN5arrow7compute8internal24ResolveOutputFromOptionsEPNS0_13KernelContextERKSt6vectorINS_10TypeHolderESaIS5_EE(ptr dead_on_unwind noalias writable writeonly sret(%"class.arrow::Result.90") align 8 captures(none) initializes((0, 32)) %0, ptr noundef readonly captures(none) %1, ptr nonnull readnone align 8 captures(none) %2) #5 personality ptr @__gxx_personality_v0 {
  %4 = getelementptr inbounds nuw i8, ptr %1, i64 8
  %5 = load ptr, ptr %4, align 8, !tbaa !177
  %6 = getelementptr inbounds nuw i8, ptr %5, i64 24
  store ptr null, ptr %0, align 8, !tbaa !203
  %7 = getelementptr inbounds nuw i8, ptr %0, i64 8
  %8 = load ptr, ptr %6, align 8, !tbaa !190
  store ptr %8, ptr %7, align 8, !tbaa !190
  %9 = getelementptr inbounds nuw i8, ptr %0, i64 16
  %10 = getelementptr inbounds nuw i8, ptr %5, i64 32
  %11 = load ptr, ptr %10, align 8, !tbaa !188
  store ptr %11, ptr %9, align 8, !tbaa !188
  %12 = getelementptr inbounds nuw i8, ptr %0, i64 24
  %13 = getelementptr inbounds nuw i8, ptr %5, i64 40
  %14 = load ptr, ptr %13, align 8, !tbaa !168
  store ptr %14, ptr %12, align 8, !tbaa !168
  %.not.i.i.i.i.i.i.i = icmp eq ptr %14, null
  br i1 %.not.i.i.i.i.i.i.i, label %_ZN5arrow6ResultINS_10TypeHolderEEC2IRKS1_vEEOT_.exit, label %15

15:                                               ; preds = %3
  %16 = getelementptr inbounds nuw i8, ptr %14, i64 8
  %17 = load i8, ptr @__libc_single_threaded, align 1, !tbaa !46
  %.not.i.i.i.i.i.i.i.i = icmp eq i8 %17, 0
  br i1 %.not.i.i.i.i.i.i.i.i, label %21, label %18

18:                                               ; preds = %15
  %19 = load i32, ptr %16, align 4, !tbaa !50
  %20 = add nsw i32 %19, 1
  store i32 %20, ptr %16, align 4, !tbaa !50
  br label %_ZN5arrow6ResultINS_10TypeHolderEEC2IRKS1_vEEOT_.exit

21:                                               ; preds = %15
  %22 = atomicrmw volatile add ptr %16, i32 1 acq_rel, align 4
  br label %_ZN5arrow6ResultINS_10TypeHolderEEC2IRKS1_vEEOT_.exit

_ZN5arrow6ResultINS_10TypeHolderEEC2IRKS1_vEEOT_.exit: ; preds = %3, %18, %21
  ret void
}